target datalayout = "e-m:e-p270:32:32-p271:32:32-p272:64:64-i64:64-i128:128-f80:128-n8:16:32:64-S128"
target triple = "x86_64-unknown-linux-gnu"

%struct.SCSISense = type { i8, i8, i8 }
%struct.SCSIDiskState = type { %struct.SCSIDevice, i32, i8, i8, i8, i16, i64, i64, i32, ptr, ptr, ptr, ptr, ptr, ptr, i8, i8, i16 }
%struct.SCSIDevice = type { %struct.DeviceState, ptr, ptr, i32, %struct.BlockConf, %struct.SCSISense, i8, [252 x i8], i32, %union.anon, i32, i32, i32, i32, i64, i64, i64, i32, i32, i32, i8, i8 }
%struct.DeviceState = type { %struct.Object, ptr, ptr, i8, i8, i64, ptr, i32, i8, ptr, %struct.NamedGPIOListHead, %struct.NamedClockListHead, %struct.BusStateHead, i32, i32, i32, %struct.ResettableState, ptr, %struct.MemReentrancyGuard }
%struct.Object = type { ptr, ptr, ptr, i32, ptr }
%struct.NamedGPIOListHead = type { ptr }
%struct.NamedClockListHead = type { ptr }
%struct.BusStateHead = type { ptr }
%struct.ResettableState = type { i32, i8, i8 }
%struct.MemReentrancyGuard = type { i8 }
%struct.BlockConf = type { ptr, i32, i32, i32, i32, i32, i32, i32, i32, i32, i32, i32, i32, i32, i32, i8, i32, i32, i32, i32 }
%union.anon = type { %struct.QTailQLink }
%struct.QTailQLink = type { ptr, ptr }

@sense_code_CAPACITY_CHANGED = external constant %struct.SCSISense, align 1

; Function Attrs: nounwind sspstrong uwtable
define internal void @scsi_disk_resize_cb(ptr noundef %opaque) #0 {
entry:
  %opaque.addr = alloca ptr, align 8
  %s = alloca ptr, align 8
  %sense_code_CAPACITY_CHANGED.coerce = alloca i24, align 4
  store ptr %opaque, ptr %opaque.addr, align 8
  %0 = load ptr, ptr %opaque.addr, align 8
  store ptr %0, ptr %s, align 8
  %1 = load ptr, ptr %s, align 8
  %qdev = getelementptr inbounds %struct.SCSIDiskState, ptr %1, i32 0, i32 0
  %type = getelementptr inbounds %struct.SCSIDevice, ptr %qdev, i32 0, i32 13
  %2 = load i32, ptr %type, align 4
  %cmp = icmp eq i32 %2, 0
  br i1 %cmp, label %if.then, label %if.end

if.then:                                          ; preds = %entry
  %3 = load ptr, ptr %s, align 8
  %qdev1 = getelementptr inbounds %struct.SCSIDiskState, ptr %3, i32 0, i32 0
  call void @llvm.memcpy.p0.p0.i64(ptr align 4 %sense_code_CAPACITY_CHANGED.coerce, ptr align 1 @sense_code_CAPACITY_CHANGED, i64 3, i1 false)
  %4 = load i24, ptr %sense_code_CAPACITY_CHANGED.coerce, align 4
  call void @scsi_device_report_change(ptr noundef %qdev1, i24 %4)
  br label %if.end

if.end:                                           ; preds = %if.then, %entry
  ret void
}