; Function Attrs: nounwind sspstrong uwtable
define internal void @scsi_disk_resize_cb(ptr noundef %opaque) #0 {
entry:
  %type = getelementptr inbounds nuw i8, ptr %opaque, i64 564
  %0 = load i32, ptr %type, align 4
  %cmp = icmp eq i32 %0, 0
  br i1 %cmp, label %if.then, label %if.end

if.then:                                          ; preds = %entry
  %sense_code_CAPACITY_CHANGED.coerce.0.copyload = load i24, ptr @sense_code_CAPACITY_CHANGED, align 1
  tail call void @scsi_device_report_change(ptr noundef nonnull %opaque, i24 %sense_code_CAPACITY_CHANGED.coerce.0.copyload) #18
  br label %if.end

if.end:                                           ; preds = %if.then, %entry
  ret void
}